target datalayout = "e-m:e-p270:32:32-p271:32:32-p272:64:64-i64:64-i128:128-f80:128-n8:16:32:64-S128"
target triple = "x86_64-pc-linux-gnu"

%struct._lv_checkbox_t = type { %struct._lv_obj_t, ptr, i8 }
%struct._lv_obj_t = type { ptr, ptr, ptr, ptr, ptr, %struct.lv_area_t, i32, i16, i16 }
%struct.lv_area_t = type { i32, i32, i32, i32 }

; Function Attrs: nounwind uwtable
define void @lv_checkbox_set_text(ptr noundef %0, ptr noundef %1) #0 {
  %3 = alloca ptr, align 8
  %4 = alloca ptr, align 8
  %5 = alloca ptr, align 8
  %6 = alloca i64, align 8
  %7 = alloca i32, align 4
  store ptr %0, ptr %3, align 8, !tbaa !3
  store ptr %1, ptr %4, align 8, !tbaa !3
  call void @llvm.lifetime.start.p0(i64 8, ptr %5) #4
  %8 = load ptr, ptr %3, align 8, !tbaa !3
  store ptr %8, ptr %5, align 8, !tbaa !3
  %9 = load ptr, ptr %4, align 8, !tbaa !3
  %10 = icmp ne ptr null, %9
  br i1 %10, label %11, label %68

11:                                               ; preds = %2
  call void @llvm.lifetime.start.p0(i64 8, ptr %6) #4
  %12 = load ptr, ptr %4, align 8, !tbaa !3
  %13 = call i64 @lv_strlen(ptr noundef %12)
  %14 = add i64 %13, 1
  store i64 %14, ptr %6, align 8, !tbaa !17
  %15 = load ptr, ptr %5, align 8, !tbaa !3
  %16 = getelementptr inbounds nuw %struct._lv_checkbox_t, ptr %15, i32 0, i32 2
  %17 = load i8, ptr %16, align 8
  %18 = and i8 %17, 1
  %19 = zext i8 %18 to i32
  %20 = icmp ne i32 %19, 0
  br i1 %20, label %29, label %21

21:                                               ; preds = %11
  %22 = load ptr, ptr %5, align 8, !tbaa !3
  %23 = getelementptr inbounds nuw %struct._lv_checkbox_t, ptr %22, i32 0, i32 1
  %24 = load ptr, ptr %23, align 8, !tbaa !7
  %25 = load i64, ptr %6, align 8, !tbaa !17
  %26 = call ptr @lv_realloc(ptr noundef %24, i64 noundef %25)
  %27 = load ptr, ptr %5, align 8, !tbaa !3
  %28 = getelementptr inbounds nuw %struct._lv_checkbox_t, ptr %27, i32 0, i32 1
  store ptr %26, ptr %28, align 8, !tbaa !7
  br label %34

29:                                               ; preds = %11
  %30 = load i64, ptr %6, align 8, !tbaa !17
  %31 = call ptr @lv_malloc(i64 noundef %30)
  %32 = load ptr, ptr %5, align 8, !tbaa !3
  %33 = getelementptr inbounds nuw %struct._lv_checkbox_t, ptr %32, i32 0, i32 1
  store ptr %31, ptr %33, align 8, !tbaa !7
  br label %34

34:                                               ; preds = %29, %21
  br label %35

35:                                               ; preds = %34
  %36 = load ptr, ptr %5, align 8, !tbaa !3
  %37 = getelementptr inbounds nuw %struct._lv_checkbox_t, ptr %36, i32 0, i32 1
  %38 = load ptr, ptr %37, align 8, !tbaa !7
  %39 = icmp ne ptr %38, null
  br i1 %39, label %46, label %40

40:                                               ; preds = %35
  br label %41

41:                                               ; preds = %40
  br label %42

42:                                               ; preds = %41
  br label %43

43:                                               ; preds = %42
  br label %44

44:                                               ; preds = %45, %43
  br label %45

45:                                               ; preds = %44
  br label %44

46:                                               ; preds = %35
  br label %47

47:                                               ; preds = %46
  br label %48

48:                                               ; preds = %47
  %49 = load ptr, ptr %5, align 8, !tbaa !3
  %50 = getelementptr inbounds nuw %struct._lv_checkbox_t, ptr %49, i32 0, i32 1
  %51 = load ptr, ptr %50, align 8, !tbaa !7
  %52 = icmp eq ptr null, %51
  br i1 %52, label %53, label %54

53:                                               ; preds = %48
  store i32 1, ptr %7, align 4
  br label %65

54:                                               ; preds = %48
  %55 = load ptr, ptr %5, align 8, !tbaa !3
  %56 = getelementptr inbounds nuw %struct._lv_checkbox_t, ptr %55, i32 0, i32 1
  %57 = load ptr, ptr %56, align 8, !tbaa !7
  %58 = load ptr, ptr %4, align 8, !tbaa !3
  %59 = call ptr @lv_strcpy(ptr noundef %57, ptr noundef %58)
  %60 = load ptr, ptr %5, align 8, !tbaa !3
  %61 = getelementptr inbounds nuw %struct._lv_checkbox_t, ptr %60, i32 0, i32 2
  %62 = load i8, ptr %61, align 8
  %63 = and i8 %62, -2
  %64 = or i8 %63, 0
  store i8 %64, ptr %61, align 8
  store i32 0, ptr %7, align 4
  br label %65

65:                                               ; preds = %54, %53
  call void @llvm.lifetime.end.p0(i64 8, ptr %6) #4
  %66 = load i32, ptr %7, align 4
  switch i32 %66, label %72 [
    i32 0, label %67
  ]

67:                                               ; preds = %65
  br label %68

68:                                               ; preds = %67, %2
  %69 = load ptr, ptr %3, align 8, !tbaa !3
  %70 = call zeroext i1 @lv_obj_refresh_self_size(ptr noundef %69)
  %71 = load ptr, ptr %3, align 8, !tbaa !3
  call void @lv_obj_invalidate(ptr noundef %71)
  store i32 0, ptr %7, align 4
  br label %72

72:                                               ; preds = %68, %65
  call void @llvm.lifetime.end.p0(i64 8, ptr %5) #4
  %73 = load i32, ptr %7, align 4
  switch i32 %73, label %75 [
    i32 0, label %74
    i32 1, label %74
  ]

74:                                               ; preds = %72, %72
  ret void

75:                                               ; preds = %72
  unreachable
}