; Function Attrs: nounwind uwtable
define void @lv_checkbox_set_text(ptr noundef %0, ptr noundef %1) local_unnamed_addr #0 {
  %.not = icmp eq ptr %1, null
  br i1 %.not, label %22, label %3

3:                                                ; preds = %2
  %4 = tail call i64 @lv_strlen(ptr noundef nonnull %1) #5
  %5 = add i64 %4, 1
  %6 = getelementptr inbounds nuw i8, ptr %0, i64 72
  %7 = load i8, ptr %6, align 8
  %8 = and i8 %7, 1
  %.not18 = icmp eq i8 %8, 0
  br i1 %.not18, label %9, label %13

9:                                                ; preds = %3
  %10 = getelementptr inbounds nuw i8, ptr %0, i64 64
  %11 = load ptr, ptr %10, align 8, !tbaa !3
  %12 = tail call ptr @lv_realloc(ptr noundef %11, i64 noundef %5) #5
  store ptr %12, ptr %10, align 8, !tbaa !3
  br label %16

13:                                               ; preds = %3
  %14 = tail call ptr @lv_malloc(i64 noundef %5) #5
  %15 = getelementptr inbounds nuw i8, ptr %0, i64 64
  store ptr %14, ptr %15, align 8, !tbaa !3
  br label %16

16:                                               ; preds = %9, %13
  %17 = phi ptr [ %12, %9 ], [ %14, %13 ]
  %.not19 = icmp eq ptr %17, null
  br i1 %.not19, label %.preheader, label %18

.preheader:                                       ; preds = %16, %.preheader
  br label %.preheader

18:                                               ; preds = %16
  %19 = tail call ptr @lv_strcpy(ptr noundef nonnull %17, ptr noundef nonnull %1) #5
  %20 = load i8, ptr %6, align 8
  %21 = and i8 %20, -2
  store i8 %21, ptr %6, align 8
  br label %22

22:                                               ; preds = %18, %2
  %23 = tail call zeroext i1 @lv_obj_refresh_self_size(ptr noundef %0) #5
  tail call void @lv_obj_invalidate(ptr noundef %0) #5
  ret void
}